target datalayout = "e-m:e-p270:32:32-p271:32:32-p272:64:64-i64:64-i128:128-f80:128-n8:16:32:64-S128"
target triple = "x86_64-pc-linux-gnu"

%struct.AVFilterContext = type { ptr, ptr, ptr, ptr, ptr, i32, ptr, ptr, i32, ptr, ptr, i32, i32, ptr, ptr, ptr, ptr, i32, ptr, i32, i32 }
%struct.VAAPIVPPContext = type { ptr, ptr, ptr, i32, i32, i32, ptr, ptr, %struct._VARectangle, i32, i32, i32, [10 x i32], i32, i32, ptr, ptr }
%struct._VARectangle = type { i16, i16, i16, i16 }
%struct.ScaleVAAPIContext = type { %struct.VAAPIVPPContext, ptr, i32, ptr, ptr, i32, i32, i32, ptr, ptr, ptr, i32, ptr, i32, i32, i32, i32 }

@.str.58 = private unnamed_addr constant [24 x i8] c"Invalid output format.\0A\00", align 1
@.str.59 = private unnamed_addr constant [13 x i8] c"Invalid %s.\0A\00", align 1
@.str.60 = private unnamed_addr constant [17 x i8] c"colour_primaries\00", align 1
@.str.61 = private unnamed_addr constant [16 x i8] c"colour_transfer\00", align 1
@.str.62 = private unnamed_addr constant [14 x i8] c"colour_matrix\00", align 1
@.str.63 = private unnamed_addr constant [16 x i8] c"chroma_location\00", align 1

; Function Attrs: cold nounwind optsize uwtable
define internal i32 @scale_vaapi_init(ptr noundef %0) #0 {
  %2 = alloca i32, align 4
  %3 = alloca ptr, align 8
  %4 = alloca ptr, align 8
  %5 = alloca ptr, align 8
  %6 = alloca i32, align 4
  %7 = alloca i32, align 4
  %8 = alloca i32, align 4
  %9 = alloca i32, align 4
  %10 = alloca i32, align 4
  store ptr %0, ptr %3, align 8, !tbaa !4
  call void @llvm.lifetime.start.p0(i64 8, ptr %4) #6
  %11 = load ptr, ptr %3, align 8, !tbaa !4
  %12 = getelementptr inbounds nuw %struct.AVFilterContext, ptr %11, i32 0, i32 9
  %13 = load ptr, ptr %12, align 8, !tbaa !9
  store ptr %13, ptr %4, align 8, !tbaa !22
  call void @llvm.lifetime.start.p0(i64 8, ptr %5) #6
  %14 = load ptr, ptr %3, align 8, !tbaa !4
  %15 = getelementptr inbounds nuw %struct.AVFilterContext, ptr %14, i32 0, i32 9
  %16 = load ptr, ptr %15, align 8, !tbaa !9
  store ptr %16, ptr %5, align 8, !tbaa !24
  %17 = load ptr, ptr %3, align 8, !tbaa !4
  call void @ff_vaapi_vpp_ctx_init(ptr noundef %17)
  %18 = load ptr, ptr %4, align 8, !tbaa !22
  %19 = getelementptr inbounds nuw %struct.VAAPIVPPContext, ptr %18, i32 0, i32 16
  store ptr @ff_vaapi_vpp_pipeline_uninit, ptr %19, align 8, !tbaa !26
  %20 = load ptr, ptr %5, align 8, !tbaa !24
  %21 = getelementptr inbounds nuw %struct.ScaleVAAPIContext, ptr %20, i32 0, i32 1
  %22 = load ptr, ptr %21, align 8, !tbaa !32
  %23 = icmp ne ptr %22, null
  br i1 %23, label %24, label %38

24:                                               ; preds = %1
  %25 = load ptr, ptr %5, align 8, !tbaa !24
  %26 = getelementptr inbounds nuw %struct.ScaleVAAPIContext, ptr %25, i32 0, i32 1
  %27 = load ptr, ptr %26, align 8, !tbaa !32
  %28 = call i32 @av_get_pix_fmt(ptr noundef %27)
  %29 = load ptr, ptr %4, align 8, !tbaa !22
  %30 = getelementptr inbounds nuw %struct.VAAPIVPPContext, ptr %29, i32 0, i32 9
  store i32 %28, ptr %30, align 8, !tbaa !34
  %31 = load ptr, ptr %4, align 8, !tbaa !22
  %32 = getelementptr inbounds nuw %struct.VAAPIVPPContext, ptr %31, i32 0, i32 9
  %33 = load i32, ptr %32, align 8, !tbaa !34
  %34 = icmp eq i32 %33, -1
  br i1 %34, label %35, label %37

35:                                               ; preds = %24
  %36 = load ptr, ptr %3, align 8, !tbaa !4
  call void (ptr, i32, ptr, ...) @av_log(ptr noundef %36, i32 noundef 16, ptr noundef @.str.58)
  store i32 -22, ptr %2, align 4
  store i32 1, ptr %6, align 4
  br label %150

37:                                               ; preds = %24
  br label %41

38:                                               ; preds = %1
  %39 = load ptr, ptr %4, align 8, !tbaa !22
  %40 = getelementptr inbounds nuw %struct.VAAPIVPPContext, ptr %39, i32 0, i32 9
  store i32 -1, ptr %40, align 8, !tbaa !34
  br label %41

41:                                               ; preds = %38, %37
  br label %42

42:                                               ; preds = %41
  %43 = load ptr, ptr %5, align 8, !tbaa !24
  %44 = getelementptr inbounds nuw %struct.ScaleVAAPIContext, ptr %43, i32 0, i32 8
  %45 = load ptr, ptr %44, align 8, !tbaa !35
  %46 = icmp ne ptr %45, null
  br i1 %46, label %47, label %63

47:                                               ; preds = %42
  call void @llvm.lifetime.start.p0(i64 4, ptr %7) #6
  %48 = load ptr, ptr %5, align 8, !tbaa !24
  %49 = getelementptr inbounds nuw %struct.ScaleVAAPIContext, ptr %48, i32 0, i32 8
  %50 = load ptr, ptr %49, align 8, !tbaa !35
  %51 = call i32 @av_color_primaries_from_name(ptr noundef %50)
  store i32 %51, ptr %7, align 4, !tbaa !36
  %52 = load i32, ptr %7, align 4, !tbaa !36
  %53 = icmp slt i32 %52, 0
  br i1 %53, label %54, label %56

54:                                               ; preds = %47
  %55 = load ptr, ptr %3, align 8, !tbaa !4
  call void (ptr, i32, ptr, ...) @av_log(ptr noundef %55, i32 noundef 16, ptr noundef @.str.59, ptr noundef @.str.60)
  store i32 -22, ptr %2, align 4
  store i32 1, ptr %6, align 4
  br label %60

56:                                               ; preds = %47
  %57 = load i32, ptr %7, align 4, !tbaa !36
  %58 = load ptr, ptr %5, align 8, !tbaa !24
  %59 = getelementptr inbounds nuw %struct.ScaleVAAPIContext, ptr %58, i32 0, i32 13
  store i32 %57, ptr %59, align 8, !tbaa !37
  store i32 0, ptr %6, align 4
  br label %60

60:                                               ; preds = %56, %54
  call void @llvm.lifetime.end.p0(i64 4, ptr %7) #6
  %61 = load i32, ptr %6, align 4
  switch i32 %61, label %150 [
    i32 0, label %62
  ]

62:                                               ; preds = %60
  br label %66

63:                                               ; preds = %42
  %64 = load ptr, ptr %5, align 8, !tbaa !24
  %65 = getelementptr inbounds nuw %struct.ScaleVAAPIContext, ptr %64, i32 0, i32 13
  store i32 2, ptr %65, align 8, !tbaa !37
  br label %66

66:                                               ; preds = %63, %62
  br label %67

67:                                               ; preds = %66
  br label %68

68:                                               ; preds = %67
  br label %69

69:                                               ; preds = %68
  %70 = load ptr, ptr %5, align 8, !tbaa !24
  %71 = getelementptr inbounds nuw %struct.ScaleVAAPIContext, ptr %70, i32 0, i32 9
  %72 = load ptr, ptr %71, align 8, !tbaa !38
  %73 = icmp ne ptr %72, null
  br i1 %73, label %74, label %90

74:                                               ; preds = %69
  call void @llvm.lifetime.start.p0(i64 4, ptr %8) #6
  %75 = load ptr, ptr %5, align 8, !tbaa !24
  %76 = getelementptr inbounds nuw %struct.ScaleVAAPIContext, ptr %75, i32 0, i32 9
  %77 = load ptr, ptr %76, align 8, !tbaa !38
  %78 = call i32 @av_color_transfer_from_name(ptr noundef %77)
  store i32 %78, ptr %8, align 4, !tbaa !36
  %79 = load i32, ptr %8, align 4, !tbaa !36
  %80 = icmp slt i32 %79, 0
  br i1 %80, label %81, label %83

81:                                               ; preds = %74
  %82 = load ptr, ptr %3, align 8, !tbaa !4
  call void (ptr, i32, ptr, ...) @av_log(ptr noundef %82, i32 noundef 16, ptr noundef @.str.59, ptr noundef @.str.61)
  store i32 -22, ptr %2, align 4
  store i32 1, ptr %6, align 4
  br label %87

83:                                               ; preds = %74
  %84 = load i32, ptr %8, align 4, !tbaa !36
  %85 = load ptr, ptr %5, align 8, !tbaa !24
  %86 = getelementptr inbounds nuw %struct.ScaleVAAPIContext, ptr %85, i32 0, i32 14
  store i32 %84, ptr %86, align 4, !tbaa !39
  store i32 0, ptr %6, align 4
  br label %87

87:                                               ; preds = %83, %81
  call void @llvm.lifetime.end.p0(i64 4, ptr %8) #6
  %88 = load i32, ptr %6, align 4
  switch i32 %88, label %150 [
    i32 0, label %89
  ]

89:                                               ; preds = %87
  br label %93

90:                                               ; preds = %69
  %91 = load ptr, ptr %5, align 8, !tbaa !24
  %92 = getelementptr inbounds nuw %struct.ScaleVAAPIContext, ptr %91, i32 0, i32 14
  store i32 2, ptr %92, align 4, !tbaa !39
  br label %93

93:                                               ; preds = %90, %89
  br label %94

94:                                               ; preds = %93
  br label %95

95:                                               ; preds = %94
  br label %96

96:                                               ; preds = %95
  %97 = load ptr, ptr %5, align 8, !tbaa !24
  %98 = getelementptr inbounds nuw %struct.ScaleVAAPIContext, ptr %97, i32 0, i32 10
  %99 = load ptr, ptr %98, align 8, !tbaa !40
  %100 = icmp ne ptr %99, null
  br i1 %100, label %101, label %117

101:                                              ; preds = %96
  call void @llvm.lifetime.start.p0(i64 4, ptr %9) #6
  %102 = load ptr, ptr %5, align 8, !tbaa !24
  %103 = getelementptr inbounds nuw %struct.ScaleVAAPIContext, ptr %102, i32 0, i32 10
  %104 = load ptr, ptr %103, align 8, !tbaa !40
  %105 = call i32 @av_color_space_from_name(ptr noundef %104)
  store i32 %105, ptr %9, align 4, !tbaa !36
  %106 = load i32, ptr %9, align 4, !tbaa !36
  %107 = icmp slt i32 %106, 0
  br i1 %107, label %108, label %110

108:                                              ; preds = %101
  %109 = load ptr, ptr %3, align 8, !tbaa !4
  call void (ptr, i32, ptr, ...) @av_log(ptr noundef %109, i32 noundef 16, ptr noundef @.str.59, ptr noundef @.str.62)
  store i32 -22, ptr %2, align 4
  store i32 1, ptr %6, align 4
  br label %114

110:                                              ; preds = %101
  %111 = load i32, ptr %9, align 4, !tbaa !36
  %112 = load ptr, ptr %5, align 8, !tbaa !24
  %113 = getelementptr inbounds nuw %struct.ScaleVAAPIContext, ptr %112, i32 0, i32 15
  store i32 %111, ptr %113, align 8, !tbaa !41
  store i32 0, ptr %6, align 4
  br label %114

114:                                              ; preds = %110, %108
  call void @llvm.lifetime.end.p0(i64 4, ptr %9) #6
  %115 = load i32, ptr %6, align 4
  switch i32 %115, label %150 [
    i32 0, label %116
  ]

116:                                              ; preds = %114
  br label %120

117:                                              ; preds = %96
  %118 = load ptr, ptr %5, align 8, !tbaa !24
  %119 = getelementptr inbounds nuw %struct.ScaleVAAPIContext, ptr %118, i32 0, i32 15
  store i32 2, ptr %119, align 8, !tbaa !41
  br label %120

120:                                              ; preds = %117, %116
  br label %121

121:                                              ; preds = %120
  br label %122

122:                                              ; preds = %121
  br label %123

123:                                              ; preds = %122
  %124 = load ptr, ptr %5, align 8, !tbaa !24
  %125 = getelementptr inbounds nuw %struct.ScaleVAAPIContext, ptr %124, i32 0, i32 12
  %126 = load ptr, ptr %125, align 8, !tbaa !42
  %127 = icmp ne ptr %126, null
  br i1 %127, label %128, label %144

128:                                              ; preds = %123
  call void @llvm.lifetime.start.p0(i64 4, ptr %10) #6
  %129 = load ptr, ptr %5, align 8, !tbaa !24
  %130 = getelementptr inbounds nuw %struct.ScaleVAAPIContext, ptr %129, i32 0, i32 12
  %131 = load ptr, ptr %130, align 8, !tbaa !42
  %132 = call i32 @av_chroma_location_from_name(ptr noundef %131)
  store i32 %132, ptr %10, align 4, !tbaa !36
  %133 = load i32, ptr %10, align 4, !tbaa !36
  %134 = icmp slt i32 %133, 0
  br i1 %134, label %135, label %137

135:                                              ; preds = %128
  %136 = load ptr, ptr %3, align 8, !tbaa !4
  call void (ptr, i32, ptr, ...) @av_log(ptr noundef %136, i32 noundef 16, ptr noundef @.str.59, ptr noundef @.str.63)
  store i32 -22, ptr %2, align 4
  store i32 1, ptr %6, align 4
  br label %141

137:                                              ; preds = %128
  %138 = load i32, ptr %10, align 4, !tbaa !36
  %139 = load ptr, ptr %5, align 8, !tbaa !24
  %140 = getelementptr inbounds nuw %struct.ScaleVAAPIContext, ptr %139, i32 0, i32 16
  store i32 %138, ptr %140, align 4, !tbaa !43
  store i32 0, ptr %6, align 4
  br label %141

141:                                              ; preds = %137, %135
  call void @llvm.lifetime.end.p0(i64 4, ptr %10) #6
  %142 = load i32, ptr %6, align 4
  switch i32 %142, label %150 [
    i32 0, label %143
  ]

143:                                              ; preds = %141
  br label %147

144:                                              ; preds = %123
  %145 = load ptr, ptr %5, align 8, !tbaa !24
  %146 = getelementptr inbounds nuw %struct.ScaleVAAPIContext, ptr %145, i32 0, i32 16
  store i32 0, ptr %146, align 4, !tbaa !43
  br label %147

147:                                              ; preds = %144, %143
  br label %148

148:                                              ; preds = %147
  br label %149

149:                                              ; preds = %148
  store i32 0, ptr %2, align 4
  store i32 1, ptr %6, align 4
  br label %150

150:                                              ; preds = %149, %141, %114, %87, %60, %35
  call void @llvm.lifetime.end.p0(i64 8, ptr %5) #6
  call void @llvm.lifetime.end.p0(i64 8, ptr %4) #6
  %151 = load i32, ptr %2, align 4
  ret i32 %151
}