; Function Attrs: cold nounwind optsize uwtable
define internal range(i32 -22, 1) i32 @scale_vaapi_init(ptr noundef %0) #0 {
  %2 = getelementptr inbounds nuw i8, ptr %0, i64 72
  %3 = load ptr, ptr %2, align 8, !tbaa !4
  tail call void @ff_vaapi_vpp_ctx_init(ptr noundef %0) #6
  %4 = getelementptr inbounds nuw i8, ptr %3, i64 136
  store ptr @ff_vaapi_vpp_pipeline_uninit, ptr %4, align 8, !tbaa !20
  %5 = getelementptr inbounds nuw i8, ptr %3, i64 144
  %6 = load ptr, ptr %5, align 8, !tbaa !26
  %.not = icmp eq ptr %6, null
  br i1 %.not, label %12, label %7

7:                                                ; preds = %1
  %8 = tail call i32 @av_get_pix_fmt(ptr noundef nonnull %6) #6
  %9 = getelementptr inbounds nuw i8, ptr %3, i64 64
  store i32 %8, ptr %9, align 8, !tbaa !28
  %10 = icmp eq i32 %8, -1
  br i1 %10, label %11, label %14

11:                                               ; preds = %7
  tail call void (ptr, i32, ptr, ...) @av_log(ptr noundef nonnull %0, i32 noundef 16, ptr noundef nonnull @.str.58) #6
  br label %45

12:                                               ; preds = %1
  %13 = getelementptr inbounds nuw i8, ptr %3, i64 64
  store i32 -1, ptr %13, align 8, !tbaa !28
  br label %14

14:                                               ; preds = %12, %7
  %15 = getelementptr inbounds nuw i8, ptr %3, i64 192
  %16 = load ptr, ptr %15, align 8, !tbaa !29
  %.not58 = icmp eq ptr %16, null
  br i1 %.not58, label %.thread, label %17

17:                                               ; preds = %14
  %18 = tail call i32 @av_color_primaries_from_name(ptr noundef nonnull %16) #6
  %19 = icmp sgt i32 %18, -1
  br i1 %19, label %.thread, label %20

20:                                               ; preds = %17
  tail call void (ptr, i32, ptr, ...) @av_log(ptr noundef nonnull %0, i32 noundef 16, ptr noundef nonnull @.str.59, ptr noundef nonnull @.str.60) #6
  br label %45

.thread:                                          ; preds = %14, %17
  %.sink = phi i32 [ %18, %17 ], [ 2, %14 ]
  %21 = getelementptr inbounds nuw i8, ptr %3, i64 232
  store i32 %.sink, ptr %21, align 8, !tbaa !30
  %22 = getelementptr inbounds nuw i8, ptr %3, i64 200
  %23 = load ptr, ptr %22, align 8, !tbaa !31
  %.not59 = icmp eq ptr %23, null
  br i1 %.not59, label %.thread62, label %24

24:                                               ; preds = %.thread
  %25 = tail call i32 @av_color_transfer_from_name(ptr noundef nonnull %23) #6
  %26 = icmp sgt i32 %25, -1
  br i1 %26, label %.thread62, label %27

27:                                               ; preds = %24
  tail call void (ptr, i32, ptr, ...) @av_log(ptr noundef nonnull %0, i32 noundef 16, ptr noundef nonnull @.str.59, ptr noundef nonnull @.str.61) #6
  br label %45

.thread62:                                        ; preds = %.thread, %24
  %.sink66 = phi i32 [ %25, %24 ], [ 2, %.thread ]
  %28 = getelementptr inbounds nuw i8, ptr %3, i64 236
  store i32 %.sink66, ptr %28, align 4, !tbaa !32
  %29 = getelementptr inbounds nuw i8, ptr %3, i64 208
  %30 = load ptr, ptr %29, align 8, !tbaa !33
  %.not60 = icmp eq ptr %30, null
  br i1 %.not60, label %.thread63, label %31

31:                                               ; preds = %.thread62
  %32 = tail call i32 @av_color_space_from_name(ptr noundef nonnull %30) #6
  %33 = icmp sgt i32 %32, -1
  br i1 %33, label %.thread63, label %34

34:                                               ; preds = %31
  tail call void (ptr, i32, ptr, ...) @av_log(ptr noundef nonnull %0, i32 noundef 16, ptr noundef nonnull @.str.59, ptr noundef nonnull @.str.62) #6
  br label %45

.thread63:                                        ; preds = %.thread62, %31
  %.sink68 = phi i32 [ %32, %31 ], [ 2, %.thread62 ]
  %35 = getelementptr inbounds nuw i8, ptr %3, i64 240
  store i32 %.sink68, ptr %35, align 8, !tbaa !34
  %36 = getelementptr inbounds nuw i8, ptr %3, i64 224
  %37 = load ptr, ptr %36, align 8, !tbaa !35
  %.not61 = icmp eq ptr %37, null
  br i1 %.not61, label %43, label %38

38:                                               ; preds = %.thread63
  %39 = tail call i32 @av_chroma_location_from_name(ptr noundef nonnull %37) #6
  %40 = icmp sgt i32 %39, -1
  br i1 %40, label %.thread64, label %42

.thread64:                                        ; preds = %38
  %41 = getelementptr inbounds nuw i8, ptr %3, i64 244
  store i32 %39, ptr %41, align 4, !tbaa !36
  br label %45

42:                                               ; preds = %38
  tail call void (ptr, i32, ptr, ...) @av_log(ptr noundef nonnull %0, i32 noundef 16, ptr noundef nonnull @.str.59, ptr noundef nonnull @.str.63) #6
  br label %45

43:                                               ; preds = %.thread63
  %44 = getelementptr inbounds nuw i8, ptr %3, i64 244
  store i32 0, ptr %44, align 4, !tbaa !36
  br label %45

45:                                               ; preds = %43, %.thread64, %42, %34, %27, %20, %11
  %.0 = phi i32 [ -22, %11 ], [ -22, %42 ], [ -22, %34 ], [ -22, %27 ], [ -22, %20 ], [ 0, %.thread64 ], [ 0, %43 ]
  ret i32 %.0
}